target datalayout = "e-m:e-p270:32:32-p271:32:32-p272:64:64-i64:64-i128:128-f80:128-n8:16:32:64-S128"
target triple = "x86_64-pc-linux-gnu"

; Function Attrs: mustprogress nounwind uwtable
define hidden noundef zeroext i1 @_ZN4cvc58internal6theory11quantifiers8TermUtil12hasOffsetArgENS0_4kind6Kind_tEiRiRS5_(i32 noundef %0, i32 noundef %1, ptr noundef nonnull align 4 dereferenceable(4) %2, ptr noundef nonnull align 4 dereferenceable(4) %3) #7 align 2 {
  %5 = alloca i1, align 1
  %6 = alloca i32, align 4
  %7 = alloca i32, align 4
  %8 = alloca ptr, align 8
  %9 = alloca ptr, align 8
  store i32 %0, ptr %6, align 4, !tbaa !50
  store i32 %1, ptr %7, align 4, !tbaa !11
  store ptr %2, ptr %8, align 8, !tbaa !112
  store ptr %3, ptr %9, align 8, !tbaa !114
  %10 = load i32, ptr %6, align 4, !tbaa !50
  %11 = icmp eq i32 %10, 75
  br i1 %11, label %12, label %18

12:                                               ; preds = %4
  %13 = load i32, ptr %7, align 4, !tbaa !11
  %14 = icmp eq i32 %13, 0
  %15 = select i1 %14, i32 1, i32 -1
  %16 = load ptr, ptr %8, align 8, !tbaa !112
  store i32 %15, ptr %16, align 4, !tbaa !11
  %17 = load ptr, ptr %9, align 8, !tbaa !114
  store i32 76, ptr %17, align 4, !tbaa !50
  store i1 true, ptr %5, align 1
  br label %39

18:                                               ; preds = %4
  %19 = load i32, ptr %6, align 4, !tbaa !50
  %20 = icmp eq i32 %19, 114
  br i1 %20, label %21, label %27

21:                                               ; preds = %18
  %22 = load i32, ptr %7, align 4, !tbaa !11
  %23 = icmp eq i32 %22, 0
  %24 = select i1 %23, i32 1, i32 -1
  %25 = load ptr, ptr %8, align 8, !tbaa !112
  store i32 %24, ptr %25, align 4, !tbaa !11
  %26 = load ptr, ptr %9, align 8, !tbaa !114
  store i32 113, ptr %26, align 4, !tbaa !50
  store i1 true, ptr %5, align 1
  br label %39

27:                                               ; preds = %18
  %28 = load i32, ptr %6, align 4, !tbaa !50
  %29 = icmp eq i32 %28, 118
  br i1 %29, label %30, label %36

30:                                               ; preds = %27
  %31 = load i32, ptr %7, align 4, !tbaa !11
  %32 = icmp eq i32 %31, 0
  %33 = select i1 %32, i32 1, i32 -1
  %34 = load ptr, ptr %8, align 8, !tbaa !112
  store i32 %33, ptr %34, align 4, !tbaa !11
  %35 = load ptr, ptr %9, align 8, !tbaa !114
  store i32 117, ptr %35, align 4, !tbaa !50
  store i1 true, ptr %5, align 1
  br label %39

36:                                               ; preds = %27
  br label %37

37:                                               ; preds = %36
  br label %38

38:                                               ; preds = %37
  store i1 false, ptr %5, align 1
  br label %39

39:                                               ; preds = %38, %30, %21, %12
  %40 = load i1, ptr %5, align 1
  ret i1 %40
}