; Function Attrs: mustprogress nofree norecurse nosync nounwind willreturn memory(argmem: write) uwtable
define hidden noundef zeroext i1 @_ZN4cvc58internal6theory11quantifiers8TermUtil12hasOffsetArgENS0_4kind6Kind_tEiRiRS5_(i32 noundef %0, i32 noundef %1, ptr noundef nonnull writeonly align 4 captures(none) dereferenceable(4) %2, ptr noundef nonnull writeonly align 4 captures(none) dereferenceable(4) %3) local_unnamed_addr #10 align 2 {
  switch i32 %0, label %9 [
    i32 75, label %.sink.split
    i32 114, label %5
    i32 118, label %6
  ]

5:                                                ; preds = %4
  br label %.sink.split

6:                                                ; preds = %4
  br label %.sink.split

.sink.split:                                      ; preds = %4, %5, %6
  %.sink = phi i32 [ 117, %6 ], [ 113, %5 ], [ 76, %4 ]
  %7 = icmp eq i32 %1, 0
  %8 = select i1 %7, i32 1, i32 -1
  store i32 %8, ptr %2, align 4, !tbaa !265
  store i32 %.sink, ptr %3, align 4, !tbaa !266
  br label %9

9:                                                ; preds = %.sink.split, %4
  %.0 = phi i1 [ false, %4 ], [ true, %.sink.split ]
  ret i1 %.0
}